Certificate:
    Data:
        Version: 3 (0x2)
        Serial Number:
            70:d2:fa:d8:f8:f8:32:a3:5d:ea:62:ef:0e:75:b4:45
        Signature Algorithm: sha256WithRSAEncryption
        Issuer: CN=jxit
        Validity
            Not Before: Feb  2 03:17:06 2023 GMT
            Not After : May  7 03:17:06 2025 GMT
        Subject: CN=stu.jxit.net.cn
        Subject Public Key Info:
            Public Key Algorithm: rsaEncryption
                RSA Public-Key: (2048 bit)
                Modulus:
                    00:f3:32:16:6d:5f:ae:3d:4a:f6:20:0f:28:6a:47:
                    72:c9:de:96:52:2e:27:c4:11:92:61:6d:ca:22:6e:
                    4a:aa:93:ef:2a:b9:e0:e1:68:d9:e2:5c:0e:c8:75:
                    e4:63:da:a1:9a:2e:10:89:50:62:0b:ae:27:d3:44:
                    cf:5d:ad:5d:16:67:5b:2a:cf:cf:b0:3a:1f:4b:5e:
                    61:50:b3:5b:a3:dd:de:59:d3:28:7c:8c:ba:43:ad:
                    58:30:9d:70:47:e6:31:75:62:95:fc:99:8a:3b:c7:
                    41:15:8d:a2:5b:64:b7:9b:9f:71:97:4b:01:19:41:
                    45:1d:3f:92:40:6f:0a:f6:20:fa:77:dd:25:88:44:
                    a2:a0:68:30:0d:9b:c1:a0:f8:ec:ea:75:ff:4f:72:
                    1c:83:7d:69:c6:6d:ed:b3:22:1b:46:94:c8:f5:21:
                    6f:1a:3a:d4:17:6f:ef:10:97:5d:fd:86:e4:33:94:
                    b6:98:68:53:ef:d0:03:ca:7f:b9:0c:3a:6f:3b:a4:
                    aa:67:24:35:dc:31:ab:ac:08:85:8a:e2:76:d7:df:
                    6b:aa:5c:5a:2d:5e:ed:b5:ab:87:a3:2a:3d:4d:64:
                    17:48:dc:fb:05:f2:20:de:f0:cd:41:9a:0f:96:30:
                    ad:04:f4:8d:2f:f7:60:aa:a0:42:f5:cb:08:f2:44:
                    7d:f9
                Exponent: 65537 (0x10001)
        X509v3 extensions:
            X509v3 Basic Constraints: 
                CA:FALSE
            X509v3 Subject Key Identifier: 
                C2:63:10:AC:10:FE:17:A9:B9:93:97:1A:C3:6C:43:34:04:A1:C3:5D
            X509v3 Authority Key Identifier: 
                keyid:B6:72:29:47:12:5F:76:7A:C4:47:86:14:65:D3:E5:42:22:24:BF:66
                DirName:/CN=jxit
                serial:27:F7:A8:52:49:5F:EE:BB:4C:92:32:5B:55:3B:05:C2:39:34:62:32

            X509v3 Extended Key Usage: 
                TLS Web Server Authentication
            X509v3 Key Usage: 
                Digital Signature, Key Encipherment
            X509v3 Subject Alternative Name: 
                DNS:stu.jxit.net.cn
    Signature Algorithm: sha256WithRSAEncryption
         c4:d3:e2:2b:e4:7b:39:ea:d3:1a:42:cc:35:2e:2d:62:05:0a:
         24:11:de:9d:7f:1b:ba:f7:6c:ca:db:45:84:88:cb:e4:0c:09:
         f5:4c:81:52:ed:05:92:14:db:d0:d2:88:94:de:51:ad:7f:04:
         a5:d8:ed:f7:07:3e:b6:50:fc:77:95:59:6f:36:09:9c:f0:2e:
         4e:77:7b:b9:0f:90:bd:f7:e8:21:92:c4:2a:81:c5:9d:1b:b7:
         f3:36:13:5a:f4:d7:92:49:69:2c:fd:ae:c0:90:a1:d5:dc:fe:
         a9:95:c0:cf:ac:13:ba:df:46:7b:7e:7a:d2:47:3d:11:04:0b:
         be:76:db:04:6b:ab:72:74:2e:5e:bd:05:d8:f2:d2:d3:f5:83:
         47:53:e4:8c:ca:26:6f:f3:f0:89:5b:e7:49:68:1f:76:37:87:
         ee:e4:5b:09:63:4a:58:ff:43:22:95:04:4e:6d:f1:ce:eb:ec:
         88:6e:df:9d:3c:47:5c:e7:0f:f1:08:a2:84:e2:9b:d1:bf:5e:
         0b:ae:0f:4f:a4:ff:d3:74:e8:78:9e:10:6f:ee:d4:5b:39:ae:
         0f:f2:d6:b5:ca:24:59:41:85:f3:a9:96:7a:87:3c:8d:7b:31:
         8d:35:62:f0:66:b0:a2:7a:39:14:8a:a6:88:b2:f0:67:20:2a:
         d5:59:31:0f
-----BEGIN CERTIFICATE-----
MIIDazCCAlOgAwIBAgIQcNL62Pj4MqNd6mLvDnW0RTANBgkqhkiG9w0BAQsFADAP
MQ0wCwYDVQQDDARqeGl0MB4XDTIzMDIwMjAzMTcwNloXDTI1MDUwNzAzMTcwNlow
GjEYMBYGA1UEAwwPc3R1Lmp4aXQubmV0LmNuMIIBIjANBgkqhkiG9w0BAQEFAAOC
AQ8AMIIBCgKCAQEA8zIWbV+uPUr2IA8oakdyyd6WUi4nxBGSYW3KIm5KqpPvKrng
4WjZ4lwOyHXkY9qhmi4QiVBiC64n00TPXa1dFmdbKs/PsDofS15hULNbo93eWdMo
fIy6Q61YMJ1wR+YxdWKV/JmKO8dBFY2iW2S3m59xl0sBGUFFHT+SQG8K9iD6d90l
iESioGgwDZvBoPjs6nX/T3Icg31pxm3tsyIbRpTI9SFvGjrUF2/vEJdd/YbkM5S2
mGhT79ADyn+5DDpvO6SqZyQ13DGrrAiFiuJ2199rqlxaLV7ttauHoyo9TWQXSNz7
BfIg3vDNQZoPljCtBPSNL/dgqqBC9csI8kR9+QIDAQABo4G3MIG0MAkGA1UdEwQC
MAAwHQYDVR0OBBYEFMJjEKwQ/hepuZOXGsNsQzQEocNdMEoGA1UdIwRDMEGAFLZy
KUcSX3Z6xEeGFGXT5UIiJL9moROkETAPMQ0wCwYDVQQDDARqeGl0ghQn96hSSV/u
u0ySMltVOwXCOTRiMjATBgNVHSUEDDAKBggrBgEFBQcDATALBgNVHQ8EBAMCBaAw
GgYDVR0RBBMwEYIPc3R1Lmp4aXQubmV0LmNuMA0GCSqGSIb3DQEBCwUAA4IBAQDE
0+Ir5Hs56tMaQsw1Li1iBQokEd6dfxu692zK20WEiMvkDAn1TIFS7QWSFNvQ0oiU
3lGtfwSl2O33Bz62UPx3lVlvNgmc8C5Od3u5D5C99+ghksQqgcWdG7fzNhNa9NeS
SWks/a7AkKHV3P6plcDPrBO630Z7fnrSRz0RBAu+dtsEa6tydC5evQXY8tLT9YNH
U+SMyiZv8/CJW+dJaB92N4fu5FsJY0pY/0MilQRObfHO6+yIbt+dPEdc5w/xCKKE
4pvRv14Lrg9PpP/TdOh4nhBv7tRbOa4P8ta1yiRZQYXzqZZ6hzyNezGNNWLwZrCi
ejkUiqaIsvBnICrVWTEP
-----END CERTIFICATE-----
